(lp0
S'BLK UN EQUITY'
p1
aS'GS UN EQUITY'
p2
aS'USB UN EQUITY'
p3
aS'AMG UN EQUITY'
p4
aS'BRK/B UN EQUITY'
p5
aS'MTB UN EQUITY'
p6
aS'AMP UN EQUITY'
p7
aS'SPGI UN EQUITY'
p8
aS'WLTW UW EQUITY'
p9
aS'MCO UN EQUITY'
p10
aS'CB UN EQUITY'
p11
aS'MS UN EQUITY'
p12
aS'PNC UN EQUITY'
p13
aS'TRV UN EQUITY'
p14
aS'AON UN EQUITY'
p15
aS'JPM UN EQUITY'
p16
a.